(dp0
VVaranasi
p1
S'Settlement'
p2
sVBharatendu Harishchandra
p3
S'Writer'
p4
sVGirija Devi
p5
S'MusicalArtist'
p6
sVemperor Akbar
p7
S'BritishRoyalty'
p8
sVMughal
p9
S'Country'
p10
sVMaha Shivaratri
p11
S'Holiday'
p12
s.